; ModuleID = '52/6134.c'
source_filename = "52/6134.c"
target datalayout = "e-m:e-p270:32:32-p271:32:32-p272:64:64-i64:64-f80:128-n8:16:32:64-S128"
target triple = "x86_64-pc-linux-gnu"

@.str = private unnamed_addr constant [6 x i8] c"%d %d\00", align 1
@.str.1 = private unnamed_addr constant [3 x i8] c"%d\00", align 1
@.str.2 = private unnamed_addr constant [2 x i8] c" \00", align 1

; Function Attrs: noinline nounwind uwtable
define dso_local i32 @main() #0 {
  %1 = alloca i32, align 4
  %2 = alloca [100 x i32], align 16
  %3 = alloca [100 x i32], align 16
  %4 = alloca i32, align 4
  %5 = alloca i32, align 4
  %6 = alloca i32, align 4
  %7 = alloca i32, align 4
  %8 = alloca i32, align 4
  %9 = alloca i32, align 4
  %10 = alloca i32, align 4
  store i32 0, i32* %1, align 4
  %11 = call i32 (i8*, ...) @__isoc99_scanf(i8* getelementptr inbounds ([6 x i8], [6 x i8]* @.str, i64 0, i64 0), i32* %6, i32* %7)
  store i32 0, i32* %4, align 4
  br label %12

12:                                               ; preds = %21, %0
  %13 = load i32, i32* %4, align 4
  %14 = load i32, i32* %6, align 4
  %15 = icmp slt i32 %13, %14
  br i1 %15, label %16, label %24

16:                                               ; preds = %12
  %17 = load i32, i32* %4, align 4
  %18 = sext i32 %17 to i64
  %19 = getelementptr inbounds [100 x i32], [100 x i32]* %2, i64 0, i64 %18
  %20 = call i32 (i8*, ...) @__isoc99_scanf(i8* getelementptr inbounds ([3 x i8], [3 x i8]* @.str.1, i64 0, i64 0), i32* %19)
  br label %21

21:                                               ; preds = %16
  %22 = load i32, i32* %4, align 4
  %23 = add nsw i32 %22, 1
  store i32 %23, i32* %4, align 4
  br label %12

24:                                               ; preds = %12
  store i32 0, i32* %5, align 4
  br label %25

25:                                               ; preds = %39, %24
  %26 = load i32, i32* %5, align 4
  %27 = load i32, i32* %6, align 4
  %28 = load i32, i32* %7, align 4
  %29 = sub nsw i32 %27, %28
  %30 = icmp slt i32 %26, %29
  br i1 %30, label %31, label %42

31:                                               ; preds = %25
  %32 = load i32, i32* %5, align 4
  %33 = sext i32 %32 to i64
  %34 = getelementptr inbounds [100 x i32], [100 x i32]* %2, i64 0, i64 %33
  %35 = load i32, i32* %34, align 4
  %36 = load i32, i32* %5, align 4
  %37 = sext i32 %36 to i64
  %38 = getelementptr inbounds [100 x i32], [100 x i32]* %3, i64 0, i64 %37
  store i32 %35, i32* %38, align 4
  br label %39

39:                                               ; preds = %31
  %40 = load i32, i32* %5, align 4
  %41 = add nsw i32 %40, 1
  store i32 %41, i32* %5, align 4
  br label %25

42:                                               ; preds = %25
  store i32 0, i32* %8, align 4
  br label %43

43:                                               ; preds = %59, %42
  %44 = load i32, i32* %8, align 4
  %45 = load i32, i32* %7, align 4
  %46 = icmp slt i32 %44, %45
  br i1 %46, label %47, label %62

47:                                               ; preds = %43
  %48 = load i32, i32* %6, align 4
  %49 = load i32, i32* %7, align 4
  %50 = sub nsw i32 %48, %49
  %51 = load i32, i32* %8, align 4
  %52 = add nsw i32 %50, %51
  %53 = sext i32 %52 to i64
  %54 = getelementptr inbounds [100 x i32], [100 x i32]* %2, i64 0, i64 %53
  %55 = load i32, i32* %54, align 4
  %56 = load i32, i32* %8, align 4
  %57 = sext i32 %56 to i64
  %58 = getelementptr inbounds [100 x i32], [100 x i32]* %2, i64 0, i64 %57
  store i32 %55, i32* %58, align 4
  br label %59

59:                                               ; preds = %47
  %60 = load i32, i32* %8, align 4
  %61 = add nsw i32 %60, 1
  store i32 %61, i32* %8, align 4
  br label %43

62:                                               ; preds = %43
  store i32 0, i32* %9, align 4
  br label %63

63:                                               ; preds = %79, %62
  %64 = load i32, i32* %9, align 4
  %65 = load i32, i32* %6, align 4
  %66 = load i32, i32* %7, align 4
  %67 = sub nsw i32 %65, %66
  %68 = icmp slt i32 %64, %67
  br i1 %68, label %69, label %82

69:                                               ; preds = %63
  %70 = load i32, i32* %9, align 4
  %71 = sext i32 %70 to i64
  %72 = getelementptr inbounds [100 x i32], [100 x i32]* %3, i64 0, i64 %71
  %73 = load i32, i32* %72, align 4
  %74 = load i32, i32* %7, align 4
  %75 = load i32, i32* %9, align 4
  %76 = add nsw i32 %74, %75
  %77 = sext i32 %76 to i64
  %78 = getelementptr inbounds [100 x i32], [100 x i32]* %2, i64 0, i64 %77
  store i32 %73, i32* %78, align 4
  br label %79

79:                                               ; preds = %69
  %80 = load i32, i32* %9, align 4
  %81 = add nsw i32 %80, 1
  store i32 %81, i32* %9, align 4
  br label %63

82:                                               ; preds = %63
  store i32 0, i32* %10, align 4
  br label %83

83:                                               ; preds = %101, %82
  %84 = load i32, i32* %10, align 4
  %85 = load i32, i32* %6, align 4
  %86 = icmp slt i32 %84, %85
  br i1 %86, label %87, label %104

87:                                               ; preds = %83
  %88 = load i32, i32* %10, align 4
  %89 = sext i32 %88 to i64
  %90 = getelementptr inbounds [100 x i32], [100 x i32]* %2, i64 0, i64 %89
  %91 = load i32, i32* %90, align 4
  %92 = call i32 (i8*, ...) @printf(i8* getelementptr inbounds ([3 x i8], [3 x i8]* @.str.1, i64 0, i64 0), i32 %91)
  %93 = load i32, i32* %10, align 4
  %94 = load i32, i32* %6, align 4
  %95 = sub nsw i32 %94, 1
  %96 = icmp eq i32 %93, %95
  br i1 %96, label %97, label %98

97:                                               ; preds = %87
  br label %104

98:                                               ; preds = %87
  %99 = call i32 (i8*, ...) @printf(i8* getelementptr inbounds ([2 x i8], [2 x i8]* @.str.2, i64 0, i64 0))
  br label %100

100:                                              ; preds = %98
  br label %101

101:                                              ; preds = %100
  %102 = load i32, i32* %10, align 4
  %103 = add nsw i32 %102, 1
  store i32 %103, i32* %10, align 4
  br label %83

104:                                              ; preds = %97, %83
  ret i32 0
}

declare dso_local i32 @__isoc99_scanf(i8*, ...) #1

declare dso_local i32 @printf(i8*, ...) #1


!llvm.module.flags = !{!0}
!llvm.ident = !{!1}

!0 = !{i32 1, !"wchar_size", i32 4}
!1 = !{!"clang version 10.0.0-4ubuntu1 "}
